ccopy_reg
_reconstructor
p1
(cmatplotlib.font_manager
FontManager
p2
c__builtin__
object
p3
NtRp4
(dp5
S'ttflist'
p6
(lp7
g1
(cmatplotlib.font_manager
FontEntry
p8
g3
NtRp9
(dp10
S'style'
p11
Vnormal
p12
sS'name'
p13
VSTIXNonUnicode
p14
sS'weight'
p15
I700
sS'stretch'
p16
g12
sS'variant'
p17
g12
sS'fname'
p18
V/Users/adeel/anaconda2/lib/python2.7/site-packages/matplotlib/mpl-data/fonts/ttf/STIXNonUniBol.ttf
p19
sS'size'
p20
Vscalable
p21
sbag1
(g8
g3
NtRp22
(dp23
g11
Voblique
p24
sg13
VBitstream Vera Sans
p25
sg15
I700
sg16
g12
sg17
g12
sg18
V/Users/adeel/anaconda2/lib/python2.7/site-packages/matplotlib/mpl-data/fonts/ttf/VeraBI.ttf
p26
sg20
g21
sbag1
(g8
g3
NtRp27
(dp28
g11
Vitalic
p29
sg13
VSTIXGeneral
p30
sg15
I400
sg16
g12
sg17
g12
sg18
V/Users/adeel/anaconda2/lib/python2.7/site-packages/matplotlib/mpl-data/fonts/ttf/STIXGeneralItalic.ttf
p31
sg20
g21
sbag1
(g8
g3
NtRp32
(dp33
g11
g12
sg13
VSTIXSizeTwoSym
p34
sg15
I400
sg16
g12
sg17
g12
sg18
V/Users/adeel/anaconda2/lib/python2.7/site-packages/matplotlib/mpl-data/fonts/ttf/STIXSizTwoSymReg.ttf
p35
sg20
g21
sbag1
(g8
g3
NtRp36
(dp37
g11
g12
sg13
VSTIXSizeThreeSym
p38
sg15
I700
sg16
g12
sg17
g12
sg18
V/Users/adeel/anaconda2/lib/python2.7/site-packages/matplotlib/mpl-data/fonts/ttf/STIXSizThreeSymBol.ttf
p39
sg20
g21
sbag1
(g8
g3
NtRp40
(dp41
g11
g12
sg13
Vcmsy10
p42
sg15
I400
sg16
g12
sg17
g12
sg18
V/Users/adeel/anaconda2/lib/python2.7/site-packages/matplotlib/mpl-data/fonts/ttf/cmsy10.ttf
p43
sg20
g21
sbag1
(g8
g3
NtRp44
(dp45
g11
g24
sg13
VBitstream Vera Sans
p46
sg15
I400
sg16
g12
sg17
g12
sg18
V/Users/adeel/anaconda2/lib/python2.7/site-packages/matplotlib/mpl-data/fonts/ttf/VeraIt.ttf
p47
sg20
g21
sbag1
(g8
g3
NtRp48
(dp49
g11
g12
sg13
Vcmex10
p50
sg15
I400
sg16
g12
sg17
g12
sg18
V/Users/adeel/anaconda2/lib/python2.7/site-packages/matplotlib/mpl-data/fonts/ttf/cmex10.ttf
p51
sg20
g21
sbag1
(g8
g3
NtRp52
(dp53
g11
g12
sg13
VSTIXGeneral
p54
sg15
I700
sg16
g12
sg17
g12
sg18
V/Users/adeel/anaconda2/lib/python2.7/site-packages/matplotlib/mpl-data/fonts/ttf/STIXGeneralBol.ttf
p55
sg20
g21
sbag1
(g8
g3
NtRp56
(dp57
g11
g12
sg13
VSTIXSizeFourSym
p58
sg15
I700
sg16
g12
sg17
g12
sg18
V/Users/adeel/anaconda2/lib/python2.7/site-packages/matplotlib/mpl-data/fonts/ttf/STIXSizFourSymBol.ttf
p59
sg20
g21
sbag1
(g8
g3
NtRp60
(dp61
g11
g12
sg13
VSTIXSizeTwoSym
p62
sg15
I700
sg16
g12
sg17
g12
sg18
V/Users/adeel/anaconda2/lib/python2.7/site-packages/matplotlib/mpl-data/fonts/ttf/STIXSizTwoSymBol.ttf
p63
sg20
g21
sbag1
(g8
g3
NtRp64
(dp65
g11
g12
sg13
VSTIXSizeOneSym
p66
sg15
I700
sg16
g12
sg17
g12
sg18
V/Users/adeel/anaconda2/lib/python2.7/site-packages/matplotlib/mpl-data/fonts/ttf/STIXSizOneSymBol.ttf
p67
sg20
g21
sbag1
(g8
g3
NtRp68
(dp69
g11
g12
sg13
Vcmss10
p70
sg15
I400
sg16
g12
sg17
g12
sg18
V/Users/adeel/anaconda2/lib/python2.7/site-packages/matplotlib/mpl-data/fonts/ttf/cmss10.ttf
p71
sg20
g21
sbag1
(g8
g3
NtRp72
(dp73
g11
g12
sg13
Vcmb10
p74
sg15
I400
sg16
g12
sg17
g12
sg18
V/Users/adeel/anaconda2/lib/python2.7/site-packages/matplotlib/mpl-data/fonts/ttf/cmb10.ttf
p75
sg20
g21
sbag1
(g8
g3
NtRp76
(dp77
g11
g12
sg13
VSTIXSizeFourSym
p78
sg15
I400
sg16
g12
sg17
g12
sg18
V/Users/adeel/anaconda2/lib/python2.7/site-packages/matplotlib/mpl-data/fonts/ttf/STIXSizFourSymReg.ttf
p79
sg20
g21
sbag1
(g8
g3
NtRp80
(dp81
g11
g12
sg13
VBitstream Vera Serif
p82
sg15
I400
sg16
g12
sg17
g12
sg18
V/Users/adeel/anaconda2/lib/python2.7/site-packages/matplotlib/mpl-data/fonts/ttf/VeraSe.ttf
p83
sg20
g21
sbag1
(g8
g3
NtRp84
(dp85
g11
g12
sg13
VSTIXNonUnicode
p86
sg15
I400
sg16
g12
sg17
g12
sg18
V/Users/adeel/anaconda2/lib/python2.7/site-packages/matplotlib/mpl-data/fonts/ttf/STIXNonUni.ttf
p87
sg20
g21
sbag1
(g8
g3
NtRp88
(dp89
g11
g12
sg13
Vcmr10
p90
sg15
I400
sg16
g12
sg17
g12
sg18
V/Users/adeel/anaconda2/lib/python2.7/site-packages/matplotlib/mpl-data/fonts/ttf/cmr10.ttf
p91
sg20
g21
sbag1
(g8
g3
NtRp92
(dp93
g11
g12
sg13
Vcmtt10
p94
sg15
I400
sg16
g12
sg17
g12
sg18
V/Users/adeel/anaconda2/lib/python2.7/site-packages/matplotlib/mpl-data/fonts/ttf/cmtt10.ttf
p95
sg20
g21
sbag1
(g8
g3
NtRp96
(dp97
g11
g29
sg13
VSTIXGeneral
p98
sg15
I700
sg16
g12
sg17
g12
sg18
V/Users/adeel/anaconda2/lib/python2.7/site-packages/matplotlib/mpl-data/fonts/ttf/STIXGeneralBolIta.ttf
p99
sg20
g21
sbag1
(g8
g3
NtRp100
(dp101
g11
g29
sg13
VSTIXNonUnicode
p102
sg15
I400
sg16
g12
sg17
g12
sg18
V/Users/adeel/anaconda2/lib/python2.7/site-packages/matplotlib/mpl-data/fonts/ttf/STIXNonUniIta.ttf
p103
sg20
g21
sbag1
(g8
g3
NtRp104
(dp105
g11
g12
sg13
VSTIXSizeThreeSym
p106
sg15
I400
sg16
g12
sg17
g12
sg18
V/Users/adeel/anaconda2/lib/python2.7/site-packages/matplotlib/mpl-data/fonts/ttf/STIXSizThreeSymReg.ttf
p107
sg20
g21
sbag1
(g8
g3
NtRp108
(dp109
g11
g12
sg13
VSTIXSizeFiveSym
p110
sg15
I400
sg16
g12
sg17
g12
sg18
V/Users/adeel/anaconda2/lib/python2.7/site-packages/matplotlib/mpl-data/fonts/ttf/STIXSizFiveSymReg.ttf
p111
sg20
g21
sbag1
(g8
g3
NtRp112
(dp113
g11
g12
sg13
VBitstream Vera Sans Mono
p114
sg15
I400
sg16
g12
sg17
g12
sg18
V/Users/adeel/anaconda2/lib/python2.7/site-packages/matplotlib/mpl-data/fonts/ttf/VeraMono.ttf
p115
sg20
g21
sbag1
(g8
g3
NtRp116
(dp117
g11
g12
sg13
Vcmmi10
p118
sg15
I400
sg16
g12
sg17
g12
sg18
V/Users/adeel/anaconda2/lib/python2.7/site-packages/matplotlib/mpl-data/fonts/ttf/cmmi10.ttf
p119
sg20
g21
sbag1
(g8
g3
NtRp120
(dp121
g11
g12
sg13
VBitstream Vera Sans Mono
p122
sg15
I700
sg16
g12
sg17
g12
sg18
V/Users/adeel/anaconda2/lib/python2.7/site-packages/matplotlib/mpl-data/fonts/ttf/VeraMoBd.ttf
p123
sg20
g21
sbag1
(g8
g3
NtRp124
(dp125
g11
g12
sg13
VBitstream Vera Sans
p126
sg15
I400
sg16
g12
sg17
g12
sg18
V/Users/adeel/anaconda2/lib/python2.7/site-packages/matplotlib/mpl-data/fonts/ttf/Vera.ttf
p127
sg20
g21
sbag1
(g8
g3
NtRp128
(dp129
g11
g12
sg13
VSTIXSizeOneSym
p130
sg15
I400
sg16
g12
sg17
g12
sg18
V/Users/adeel/anaconda2/lib/python2.7/site-packages/matplotlib/mpl-data/fonts/ttf/STIXSizOneSymReg.ttf
p131
sg20
g21
sbag1
(g8
g3
NtRp132
(dp133
g11
g24
sg13
VBitstream Vera Sans Mono
p134
sg15
I700
sg16
g12
sg17
g12
sg18
V/Users/adeel/anaconda2/lib/python2.7/site-packages/matplotlib/mpl-data/fonts/ttf/VeraMoBI.ttf
p135
sg20
g21
sbag1
(g8
g3
NtRp136
(dp137
g11
g12
sg13
VSTIXGeneral
p138
sg15
I400
sg16
g12
sg17
g12
sg18
V/Users/adeel/anaconda2/lib/python2.7/site-packages/matplotlib/mpl-data/fonts/ttf/STIXGeneral.ttf
p139
sg20
g21
sbag1
(g8
g3
NtRp140
(dp141
g11
g12
sg13
VBitstream Vera Serif
p142
sg15
I700
sg16
g12
sg17
g12
sg18
V/Users/adeel/anaconda2/lib/python2.7/site-packages/matplotlib/mpl-data/fonts/ttf/VeraSeBd.ttf
p143
sg20
g21
sbag1
(g8
g3
NtRp144
(dp145
g11
g24
sg13
VBitstream Vera Sans Mono
p146
sg15
I400
sg16
g12
sg17
g12
sg18
V/Users/adeel/anaconda2/lib/python2.7/site-packages/matplotlib/mpl-data/fonts/ttf/VeraMoIt.ttf
p147
sg20
g21
sbag1
(g8
g3
NtRp148
(dp149
g11
g29
sg13
VSTIXNonUnicode
p150
sg15
I700
sg16
g12
sg17
g12
sg18
V/Users/adeel/anaconda2/lib/python2.7/site-packages/matplotlib/mpl-data/fonts/ttf/STIXNonUniBolIta.ttf
p151
sg20
g21
sbag1
(g8
g3
NtRp152
(dp153
g11
g12
sg13
VBitstream Vera Sans
p154
sg15
I700
sg16
g12
sg17
g12
sg18
V/Users/adeel/anaconda2/lib/python2.7/site-packages/matplotlib/mpl-data/fonts/ttf/VeraBd.ttf
p155
sg20
g21
sbag1
(g8
g3
NtRp156
(dp157
g11
g29
sg13
VCorbel
p158
sg15
I700
sg16
g12
sg17
g12
sg18
V/Users/adeel/Library/Fonts/Corbel Bold Italic.ttf
p159
sg20
g21
sbag1
(g8
g3
NtRp160
(dp161
g11
g29
sg13
VTrebuchet MS
p162
sg15
I400
sg16
g12
sg17
g12
sg18
V/Library/Fonts/Trebuchet MS Italic.ttf
p163
sg20
g21
sbag1
(g8
g3
NtRp164
(dp165
g11
g12
sg13
VHoefler Text
p166
sg15
I400
sg16
g12
sg17
g12
sg18
V/Library/Fonts/Hoefler Text Ornaments.ttf
p167
sg20
g21
sbag1
(g8
g3
NtRp168
(dp169
g11
g12
sg13
VSystem Font
p170
sg15
I400
sg16
g12
sg17
g12
sg18
V/System/Library/Fonts/SFNSText-HeavyItalic.otf
p171
sg20
g21
sbag1
(g8
g3
NtRp172
(dp173
g11
g12
sg13
VTimes New Roman
p174
sg15
I500
sg16
g12
sg17
g12
sg18
V/Library/Fonts/Times New Roman.ttf
p175
sg20
g21
sbag1
(g8
g3
NtRp176
(dp177
g11
g12
sg13
VOsaka
p178
sg15
I400
sg16
g12
sg17
g12
sg18
V/Library/Fonts/Osaka.ttf
p179
sg20
g21
sbag1
(g8
g3
NtRp180
(dp181
g11
g12
sg13
VVerdana
p182
sg15
I700
sg16
g12
sg17
g12
sg18
V/Library/Fonts/Verdana Bold.ttf
p183
sg20
g21
sbag1
(g8
g3
NtRp184
(dp185
g11
g12
sg13
VSystem Font
p186
sg15
I400
sg16
g12
sg17
g12
sg18
V/System/Library/Fonts/SFNSDisplay-Bold.otf
p187
sg20
g21
sbag1
(g8
g3
NtRp188
(dp189
g11
g12
sg13
VArial Unicode MS
p190
sg15
I400
sg16
g12
sg17
g12
sg18
V/Library/Fonts/Arial Unicode.ttf
p191
sg20
g21
sbag1
(g8
g3
NtRp192
(dp193
g11
g12
sg13
VSTIXSizeThreeSym
p194
sg15
I400
sg16
g12
sg17
g12
sg18
V/Library/Fonts/STIXSizThreeSymReg.otf
p195
sg20
g21
sbag1
(g8
g3
NtRp196
(dp197
g11
g12
sg13
VDIN Condensed
p198
sg15
I700
sg16
Vcondensed
p199
sg17
g12
sg18
V/Library/Fonts/DIN Condensed Bold.ttf
p200
sg20
g21
sbag1
(g8
g3
NtRp201
(dp202
g11
g12
sg13
VLiSong Pro
p203
sg15
I400
sg16
g12
sg17
g12
sg18
V/Library/Fonts/\u5137\u5b8b Pro.ttf
p204
sg20
g21
sbag1
(g8
g3
NtRp205
(dp206
g11
g12
sg13
VArial
p207
sg15
I400
sg16
g12
sg17
g12
sg18
V/Library/Fonts/Arial.ttf
p208
sg20
g21
sbag1
(g8
g3
NtRp209
(dp210
g11
g12
sg13
VAppleGothic
p211
sg15
I400
sg16
g12
sg17
g12
sg18
V/Library/Fonts/AppleGothic.ttf
p212
sg20
g21
sbag1
(g8
g3
NtRp213
(dp214
g11
g12
sg13
VYuGothic
p215
sg15
I500
sg16
g12
sg17
g12
sg18
V/Library/Fonts/Yu Gothic Medium.otf
p216
sg20
g21
sbag1
(g8
g3
NtRp217
(dp218
g11
g12
sg13
VArial Narrow
p219
sg15
I400
sg16
g199
sg17
g12
sg18
V/Library/Fonts/Arial Narrow.ttf
p220
sg20
g21
sbag1
(g8
g3
NtRp221
(dp222
g11
g29
sg13
VCandara
p223
sg15
I700
sg16
g12
sg17
g12
sg18
V/Users/adeel/Library/Fonts/Candara Bold Italic.ttf
p224
sg20
g21
sbag1
(g8
g3
NtRp225
(dp226
g11
g12
sg13
VSystem Font
p227
sg15
I400
sg16
g12
sg17
g12
sg18
V/System/Library/Fonts/SFNSDisplay-Medium.otf
p228
sg20
g21
sbag1
(g8
g3
NtRp229
(dp230
g11
g12
sg13
VAppleMyungjo
p231
sg15
I400
sg16
g12
sg17
g12
sg18
V/Library/Fonts/AppleMyungjo.ttf
p232
sg20
g21
sbag1
(g8
g3
NtRp233
(dp234
g11
g12
sg13
VMishafi Gold
p235
sg15
I400
sg16
g12
sg17
g12
sg18
V/Library/Fonts/Mishafi Gold.ttf
p236
sg20
g21
sbag1
(g8
g3
NtRp237
(dp238
g11
g12
sg13
VZapf Dingbats
p239
sg15
I400
sg16
g12
sg17
g12
sg18
V/System/Library/Fonts/ZapfDingbats.ttf
p240
sg20
g21
sbag1
(g8
g3
NtRp241
(dp242
g11
g12
sg13
VConstantia
p243
sg15
I700
sg16
g12
sg17
g12
sg18
V/Users/adeel/Library/Fonts/Constantia Bold.ttf
p244
sg20
g21
sbag1
(g8
g3
NtRp245
(dp246
g11
g12
sg13
VSTIXIntegralsD
p247
sg15
I700
sg16
g12
sg17
g12
sg18
V/Library/Fonts/STIXIntDBol.otf
p248
sg20
g21
sbag1
(g8
g3
NtRp249
(dp250
g11
g29
sg13
VCorbel
p251
sg15
I400
sg16
g12
sg17
g12
sg18
V/Users/adeel/Library/Fonts/Corbel Italic.ttf
p252
sg20
g21
sbag1
(g8
g3
NtRp253
(dp254
g11
g12
sg13
VSystem Font
p255
sg15
I400
sg16
g12
sg17
g12
sg18
V/System/Library/Fonts/SFNSText-BoldItalicG2.otf
p256
sg20
g21
sbag1
(g8
g3
NtRp257
(dp258
g11
g12
sg13
VDIN Alternate
p259
sg15
I700
sg16
g12
sg17
g12
sg18
V/Library/Fonts/DIN Alternate Bold.ttf
p260
sg20
g21
sbag1
(g8
g3
NtRp261
(dp262
g11
g29
sg13
VCambria
p263
sg15
I700
sg16
g12
sg17
g12
sg18
V/Users/adeel/Library/Fonts/Cambria Bold Italic.ttf
p264
sg20
g21
sbag1
(g8
g3
NtRp265
(dp266
g11
g12
sg13
VSTIXSizeThreeSym
p267
sg15
I700
sg16
g12
sg17
g12
sg18
V/Library/Fonts/STIXSizThreeSymBol.otf
p268
sg20
g21
sbag1
(g8
g3
NtRp269
(dp270
g11
g12
sg13
VCourier New
p271
sg15
I400
sg16
g12
sg17
g12
sg18
V/Library/Fonts/Courier New.ttf
p272
sg20
g21
sbag1
(g8
g3
NtRp273
(dp274
g11
g29
sg13
VArial Narrow
p275
sg15
I700
sg16
g199
sg17
g12
sg18
V/Library/Fonts/Arial Narrow Bold Italic.ttf
p276
sg20
g21
sbag1
(g8
g3
NtRp277
(dp278
g11
g12
sg13
VLuminari
p279
sg15
I400
sg16
g12
sg17
g12
sg18
V/Library/Fonts/Luminari.ttf
p280
sg20
g21
sbag1
(g8
g3
NtRp281
(dp282
g11
g12
sg13
VZapfino
p283
sg15
I400
sg16
g12
sg17
g12
sg18
V/Library/Fonts/Zapfino.ttf
p284
sg20
g21
sbag1
(g8
g3
NtRp285
(dp286
g11
g12
sg13
VArial Narrow
p287
sg15
I700
sg16
g199
sg17
g12
sg18
V/Library/Fonts/Arial Narrow Bold.ttf
p288
sg20
g21
sbag1
(g8
g3
NtRp289
(dp290
g11
g29
sg13
VTimes New Roman
p291
sg15
I500
sg16
g12
sg17
g12
sg18
V/Library/Fonts/Times New Roman Italic.ttf
p292
sg20
g21
sbag1
(g8
g3
NtRp293
(dp294
g11
g12
sg13
VKrungthep
p295
sg15
I400
sg16
g12
sg17
g12
sg18
V/Library/Fonts/Krungthep.ttf
p296
sg20
g21
sbag1
(g8
g3
NtRp297
(dp298
g11
g12
sg13
VSystem Font
p299
sg15
I400
sg16
g12
sg17
g12
sg18
V/System/Library/Fonts/SFNSText-RegularItalic.otf
p300
sg20
g21
sbag1
(g8
g3
NtRp301
(dp302
g11
g29
sg13
VCambria
p303
sg15
I400
sg16
g12
sg17
g12
sg18
V/Users/adeel/Library/Fonts/Cambria Italic.ttf
p304
sg20
g21
sbag1
(g8
g3
NtRp305
(dp306
g11
g12
sg13
VSystem Font
p307
sg15
I400
sg16
g12
sg17
g12
sg18
V/System/Library/Fonts/SFNSText-RegularG2.otf
p308
sg20
g21
sbag1
(g8
g3
NtRp309
(dp310
g11
g12
sg13
VGeorgia
p311
sg15
I400
sg16
g12
sg17
g12
sg18
V/Library/Fonts/Georgia.ttf
p312
sg20
g21
sbag1
(g8
g3
NtRp313
(dp314
g11
g12
sg13
VSystem Font
p315
sg15
I400
sg16
g12
sg17
g12
sg18
V/System/Library/Fonts/SFNSText-Medium.otf
p316
sg20
g21
sbag1
(g8
g3
NtRp317
(dp318
g11
g12
sg13
VSTIXIntegralsSm
p319
sg15
I700
sg16
g12
sg17
g12
sg18
V/Library/Fonts/STIXIntSmBol.otf
p320
sg20
g21
sbag1
(g8
g3
NtRp321
(dp322
g11
g12
sg13
VDiwan Thuluth
p323
sg15
I400
sg16
g12
sg17
g12
sg18
V/Library/Fonts/Diwan Thuluth.ttf
p324
sg20
g21
sbag1
(g8
g3
NtRp325
(dp326
g11
g12
sg13
VTrebuchet MS
p327
sg15
I700
sg16
g12
sg17
g12
sg18
V/Library/Fonts/Trebuchet MS Bold.ttf
p328
sg20
g21
sbag1
(g8
g3
NtRp329
(dp330
g11
g12
sg13
VSystem Font
p331
sg15
I400
sg16
g12
sg17
g12
sg18
V/System/Library/Fonts/SFNSText-BoldG1.otf
p332
sg20
g21
sbag1
(g8
g3
NtRp333
(dp334
g11
g12
sg13
VBradley Hand
p335
sg15
I700
sg16
g12
sg17
g12
sg18
V/Library/Fonts/Bradley Hand Bold.ttf
p336
sg20
g21
sbag1
(g8
g3
NtRp337
(dp338
g11
g12
sg13
VSystem Font
p339
sg15
I400
sg16
g12
sg17
g12
sg18
V/System/Library/Fonts/SFNSText-SemiboldItalic.otf
p340
sg20
g21
sbag1
(g8
g3
NtRp341
(dp342
g11
g29
sg13
VTimes New Roman
p343
sg15
I700
sg16
g12
sg17
g12
sg18
V/Library/Fonts/Times New Roman Bold Italic.ttf
p344
sg20
g21
sbag1
(g8
g3
NtRp345
(dp346
g11
g29
sg13
VArial Narrow
p347
sg15
I400
sg16
g199
sg17
g12
sg18
V/Library/Fonts/Arial Narrow Italic.ttf
p348
sg20
g21
sbag1
(g8
g3
NtRp349
(dp350
g11
g12
sg13
VSystem Font
p351
sg15
I400
sg16
g12
sg17
g12
sg18
V/System/Library/Fonts/SFNSText-RegularItalicG3.otf
p352
sg20
g21
sbag1
(g8
g3
NtRp353
(dp354
g11
g29
sg13
VCandara
p355
sg15
I400
sg16
g12
sg17
g12
sg18
V/Users/adeel/Library/Fonts/Candara Italic.ttf
p356
sg20
g21
sbag1
(g8
g3
NtRp357
(dp358
g11
g12
sg13
VPilGi
p359
sg15
I400
sg16
g12
sg17
g12
sg18
V/Library/Fonts/Pilgiche.ttf
p360
sg20
g21
sbag1
(g8
g3
NtRp361
(dp362
g11
g12
sg13
VApple Braille
p363
sg15
I400
sg16
g12
sg17
g12
sg18
V/System/Library/Fonts/Apple Braille Outline 8 Dot.ttf
p364
sg20
g21
sbag1
(g8
g3
NtRp365
(dp366
g11
g12
sg13
VSystem Font
p367
sg15
I400
sg16
g12
sg17
g12
sg18
V/System/Library/Fonts/SFNSText-RegularItalicG2.otf
p368
sg20
g21
sbag1
(g8
g3
NtRp369
(dp370
g11
g12
sg13
VPlantagenet Cherokee
p371
sg15
I400
sg16
g12
sg17
g12
sg18
V/Library/Fonts/PlantagenetCherokee.ttf
p372
sg20
g21
sbag1
(g8
g3
NtRp373
(dp374
g11
g12
sg13
VTimes New Roman
p375
sg15
I700
sg16
g12
sg17
g12
sg18
V/Library/Fonts/Times New Roman Bold.ttf
p376
sg20
g21
sbag1
(g8
g3
NtRp377
(dp378
g11
g29
sg13
VArial
p379
sg15
I700
sg16
g12
sg17
g12
sg18
V/Library/Fonts/Arial Bold Italic.ttf
p380
sg20
g21
sbag1
(g8
g3
NtRp381
(dp382
g11
g12
sg13
VHeadLineA
p383
sg15
I400
sg16
g12
sg17
g12
sg18
V/Library/Fonts/HeadlineA.ttf
p384
sg20
g21
sbag1
(g8
g3
NtRp385
(dp386
g11
g12
sg13
VSTIXVariants
p387
sg15
I400
sg16
g12
sg17
g12
sg18
V/Library/Fonts/STIXVar.otf
p388
sg20
g21
sbag1
(g8
g3
NtRp389
(dp390
g11
g12
sg13
VMishafi
p391
sg15
I400
sg16
g12
sg17
g12
sg18
V/Library/Fonts/Mishafi.ttf
p392
sg20
g21
sbag1
(g8
g3
NtRp393
(dp394
g11
g12
sg13
VSTIXVariants
p395
sg15
I700
sg16
g12
sg17
g12
sg18
V/Library/Fonts/STIXVarBol.otf
p396
sg20
g21
sbag1
(g8
g3
NtRp397
(dp398
g11
g12
sg13
VSystem Font
p399
sg15
I400
sg16
g12
sg17
g12
sg18
V/System/Library/Fonts/SFNSText-BoldItalic.otf
p400
sg20
g21
sbag1
(g8
g3
NtRp401
(dp402
g11
g12
sg13
VSystem Font
p403
sg15
I400
sg16
g12
sg17
g12
sg18
V/System/Library/Fonts/SFNSText-BoldItalicG1.otf
p404
sg20
g21
sbag1
(g8
g3
NtRp405
(dp406
g11
g12
sg13
VSTFangsong
p407
sg15
I400
sg16
g12
sg17
g12
sg18
V/Library/Fonts/\u534e\u6587\u4eff\u5b8b.ttf
p408
sg20
g21
sbag1
(g8
g3
NtRp409
(dp410
g11
g12
sg13
VConsolas
p411
sg15
I700
sg16
g12
sg17
g12
sg18
V/Users/adeel/Library/Fonts/Consolas Bold.ttf
p412
sg20
g21
sbag1
(g8
g3
NtRp413
(dp414
g11
g12
sg13
VSTHeiti
p415
sg15
I400
sg16
g12
sg17
g12
sg18
V/Library/Fonts/\u534e\u6587\u9ed1\u4f53.ttf
p416
sg20
g21
sbag1
(g8
g3
NtRp417
(dp418
g11
g12
sg13
VSystem Font
p419
sg15
I400
sg16
g12
sg17
g12
sg18
V/System/Library/Fonts/SFNSText-Regular.otf
p420
sg20
g21
sbag1
(g8
g3
NtRp421
(dp422
g11
g12
sg13
VSTIXIntegralsUp
p423
sg15
I700
sg16
g12
sg17
g12
sg18
V/Library/Fonts/STIXIntUpBol.otf
p424
sg20
g21
sbag1
(g8
g3
NtRp425
(dp426
g11
g12
sg13
VWawati TC
p427
sg15
I400
sg16
g12
sg17
g12
sg18
V/Library/Fonts/WawaTC-Regular.otf
p428
sg20
g21
sbag1
(g8
g3
NtRp429
(dp430
g11
g12
sg13
VSkia
p431
sg15
I400
sg16
g12
sg17
g12
sg18
V/Library/Fonts/Skia.ttf
p432
sg20
g21
sbag1
(g8
g3
NtRp433
(dp434
g11
g12
sg13
VSTIXSizeFiveSym
p435
sg15
I400
sg16
g12
sg17
g12
sg18
V/Library/Fonts/STIXSizFiveSymReg.otf
p436
sg20
g21
sbag1
(g8
g3
NtRp437
(dp438
g11
g12
sg13
VVerdana
p439
sg15
I400
sg16
g12
sg17
g12
sg18
V/Library/Fonts/Verdana.ttf
p440
sg20
g21
sbag1
(g8
g3
NtRp441
(dp442
g11
g12
sg13
VFarisi
p443
sg15
I400
sg16
g12
sg17
g12
sg18
V/Library/Fonts/Farisi.ttf
p444
sg20
g21
sbag1
(g8
g3
NtRp445
(dp446
g11
g12
sg13
VCorbel
p447
sg15
I700
sg16
g12
sg17
g12
sg18
V/Users/adeel/Library/Fonts/Corbel Bold.ttf
p448
sg20
g21
sbag1
(g8
g3
NtRp449
(dp450
g11
g12
sg13
VGurmukhi MT
p451
sg15
I400
sg16
g12
sg17
g12
sg18
V/Library/Fonts/Gurmukhi.ttf
p452
sg20
g21
sbag1
(g8
g3
NtRp453
(dp454
g11
g12
sg13
VBodoni 72 Smallcaps
p455
sg15
I400
sg16
g12
sg17
g12
sg18
V/Library/Fonts/Bodoni 72 Smallcaps Book.ttf
p456
sg20
g21
sbag1
(g8
g3
NtRp457
(dp458
g11
g12
sg13
VYuGothic
p459
sg15
I700
sg16
g12
sg17
g12
sg18
V/Library/Fonts/Yu Gothic Bold.otf
p460
sg20
g21
sbag1
(g8
g3
NtRp461
(dp462
g11
g12
sg13
VConsolas
p463
sg15
I400
sg16
g12
sg17
g12
sg18
V/Users/adeel/Library/Fonts/Consolas.ttf
p464
sg20
g21
sbag1
(g8
g3
NtRp465
(dp466
g11
g12
sg13
VSystem Font
p467
sg15
I400
sg16
g12
sg17
g12
sg18
V/System/Library/Fonts/SFNSText-RegularItalicG1.otf
p468
sg20
g21
sbag1
(g8
g3
NtRp469
(dp470
g11
g12
sg13
VSystem Font
p471
sg15
I400
sg16
g12
sg17
g12
sg18
V/System/Library/Fonts/SFNSText-BoldItalicG3.otf
p472
sg20
g21
sbag1
(g8
g3
NtRp473
(dp474
g11
g12
sg13
VSystem Font
p475
sg15
I400
sg16
g12
sg17
g12
sg18
V/System/Library/Fonts/SFNSText-Bold.otf
p476
sg20
g21
sbag1
(g8
g3
NtRp477
(dp478
g11
g29
sg13
VArial
p479
sg15
I400
sg16
g12
sg17
g12
sg18
V/Library/Fonts/Arial Italic.ttf
p480
sg20
g21
sbag1
(g8
g3
NtRp481
(dp482
g11
g12
sg13
VCalibri
p483
sg15
I400
sg16
g12
sg17
g12
sg18
V/Users/adeel/Library/Fonts/Calibri.ttf
p484
sg20
g21
sbag1
(g8
g3
NtRp485
(dp486
g11
g29
sg13
VConstantia
p487
sg15
I700
sg16
g12
sg17
g12
sg18
V/Users/adeel/Library/Fonts/Constantia Bold Italic.ttf
p488
sg20
g21
sbag1
(g8
g3
NtRp489
(dp490
g11
g12
sg13
VSystem Font
p491
sg15
I400
sg16
g12
sg17
g12
sg18
V/System/Library/Fonts/SFNSDisplay-Light.otf
p492
sg20
g21
sbag1
(g8
g3
NtRp493
(dp494
g11
g29
sg13
VSTIXNonUnicode
p495
sg15
I700
sg16
g12
sg17
g12
sg18
V/Library/Fonts/STIXNonUniBolIta.otf
p496
sg20
g21
sbag1
(g8
g3
NtRp497
(dp498
g11
g12
sg13
VApple Braille
p499
sg15
I400
sg16
g12
sg17
g12
sg18
V/System/Library/Fonts/Apple Braille Pinpoint 8 Dot.ttf
p500
sg20
g21
sbag1
(g8
g3
NtRp501
(dp502
g11
g29
sg13
VGeorgia
p503
sg15
I400
sg16
g12
sg17
g12
sg18
V/Library/Fonts/Georgia Italic.ttf
p504
sg20
g21
sbag1
(g8
g3
NtRp505
(dp506
g11
g12
sg13
VApple Braille
p507
sg15
I400
sg16
g12
sg17
g12
sg18
V/System/Library/Fonts/Apple Braille Outline 6 Dot.ttf
p508
sg20
g21
sbag1
(g8
g3
NtRp509
(dp510
g11
g12
sg13
VCambria
p511
sg15
I400
sg16
g12
sg17
g12
sg18
V/Users/adeel/Library/Fonts/Cambria.ttf
p512
sg20
g21
sbag1
(g8
g3
NtRp513
(dp514
g11
g29
sg13
VCourier New
p515
sg15
I700
sg16
g12
sg17
g12
sg18
V/Library/Fonts/Courier New Bold Italic.ttf
p516
sg20
g21
sbag1
(g8
g3
NtRp517
(dp518
g11
g12
sg13
VWawati SC
p519
sg15
I400
sg16
g12
sg17
g12
sg18
V/Library/Fonts/WawaSC-Regular.otf
p520
sg20
g21
sbag1
(g8
g3
NtRp521
(dp522
g11
g29
sg13
VCalibri
p523
sg15
I700
sg16
g12
sg17
g12
sg18
V/Users/adeel/Library/Fonts/Calibri Bold Italic.ttf
p524
sg20
g21
sbag1
(g8
g3
NtRp525
(dp526
g11
g12
sg13
VSystem Font
p527
sg15
I400
sg16
g12
sg17
g12
sg18
V/System/Library/Fonts/SFNSText-RegularG3.otf
p528
sg20
g21
sbag1
(g8
g3
NtRp529
(dp530
g11
g12
sg13
VArial Rounded MT Bold
p531
sg15
I700
sg16
g12
sg17
g12
sg18
V/Library/Fonts/Arial Rounded Bold.ttf
p532
sg20
g21
sbag1
(g8
g3
NtRp533
(dp534
g11
g12
sg13
VSystem Font
p535
sg15
I400
sg16
g12
sg17
g12
sg18
V/System/Library/Fonts/SFNSText-Semibold.otf
p536
sg20
g21
sbag1
(g8
g3
NtRp537
(dp538
g11
g12
sg13
VPCMyungjo
p539
sg15
I400
sg16
g12
sg17
g12
sg18
V/Library/Fonts/PCmyoungjo.ttf
p540
sg20
g21
sbag1
(g8
g3
NtRp541
(dp542
g11
g12
sg13
V.LastResort
p543
sg15
I400
sg16
g12
sg17
g12
sg18
V/System/Library/Fonts/LastResort.ttf
p544
sg20
g21
sbag1
(g8
g3
NtRp545
(dp546
g11
g29
sg13
VVerdana
p547
sg15
I700
sg16
g12
sg17
g12
sg18
V/Library/Fonts/Verdana Bold Italic.ttf
p548
sg20
g21
sbag1
(g8
g3
NtRp549
(dp550
g11
g29
sg13
VConstantia
p551
sg15
I400
sg16
g12
sg17
g12
sg18
V/Users/adeel/Library/Fonts/Constantia Italic.ttf
p552
sg20
g21
sbag1
(g8
g3
NtRp553
(dp554
g11
g12
sg13
VLiHei Pro
p555
sg15
I400
sg16
g12
sg17
g12
sg18
V/Library/Fonts/\u5137\u9ed1 Pro.ttf
p556
sg20
g21
sbag1
(g8
g3
NtRp557
(dp558
g11
g12
sg13
VSystem Font
p559
sg15
I400
sg16
g12
sg17
g12
sg18
V/System/Library/Fonts/SFNSText-LightItalic.otf
p560
sg20
g21
sbag1
(g8
g3
NtRp561
(dp562
g11
g12
sg13
VInaiMathi
p563
sg15
I400
sg16
g12
sg17
g12
sg18
V/Library/Fonts/InaiMathi.ttf
p564
sg20
g21
sbag1
(g8
g3
NtRp565
(dp566
g11
g12
sg13
VSystem Font
p567
sg15
I400
sg16
g12
sg17
g12
sg18
V/System/Library/Fonts/SFNSText-BoldG2.otf
p568
sg20
g21
sbag1
(g8
g3
NtRp569
(dp570
g11
g12
sg13
VSTIXIntegralsSm
p571
sg15
I400
sg16
g12
sg17
g12
sg18
V/Library/Fonts/STIXIntSmReg.otf
p572
sg20
g21
sbag1
(g8
g3
NtRp573
(dp574
g11
g12
sg13
VKokonor
p575
sg15
I400
sg16
g12
sg17
g12
sg18
V/Library/Fonts/Kokonor.ttf
p576
sg20
g21
sbag1
(g8
g3
NtRp577
(dp578
g11
g29
sg13
VVerdana
p579
sg15
I400
sg16
g12
sg17
g12
sg18
V/Library/Fonts/Verdana Italic.ttf
p580
sg20
g21
sbag1
(g8
g3
NtRp581
(dp582
g11
g12
sg13
VSTIXGeneral
p583
sg15
I700
sg16
g12
sg17
g12
sg18
V/Library/Fonts/STIXGeneralBol.otf
p584
sg20
g21
sbag1
(g8
g3
NtRp585
(dp586
g11
g12
sg13
VApple Braille
p587
sg15
I400
sg16
g12
sg17
g12
sg18
V/System/Library/Fonts/Apple Braille.ttf
p588
sg20
g21
sbag1
(g8
g3
NtRp589
(dp590
g11
g12
sg13
VSystem Font
p591
sg15
I400
sg16
g12
sg17
g12
sg18
V/System/Library/Fonts/SFNSText-Light.otf
p592
sg20
g21
sbag1
(g8
g3
NtRp593
(dp594
g11
g12
sg13
VSystem Font
p595
sg15
I400
sg16
g12
sg17
g12
sg18
V/System/Library/Fonts/SFNSDisplay-Ultralight.otf
p596
sg20
g21
sbag1
(g8
g3
NtRp597
(dp598
g11
g12
sg13
VChalkduster
p599
sg15
I400
sg16
g12
sg17
g12
sg18
V/Library/Fonts/Chalkduster.ttf
p600
sg20
g21
sbag1
(g8
g3
NtRp601
(dp602
g11
g12
sg13
VWeibei TC
p603
sg15
I700
sg16
g12
sg17
g12
sg18
V/Library/Fonts/WeibeiTC-Bold.otf
p604
sg20
g21
sbag1
(g8
g3
NtRp605
(dp606
g11
g12
sg13
VSTIXNonUnicode
p607
sg15
I400
sg16
g12
sg17
g12
sg18
V/Library/Fonts/STIXNonUni.otf
p608
sg20
g21
sbag1
(g8
g3
NtRp609
(dp610
g11
g12
sg13
VOsaka
p611
sg15
I400
sg16
g12
sg17
g12
sg18
V/Library/Fonts/OsakaMono.ttf
p612
sg20
g21
sbag1
(g8
g3
NtRp613
(dp614
g11
g29
sg13
VSTIXNonUnicode
p615
sg15
I400
sg16
g12
sg17
g12
sg18
V/Library/Fonts/STIXNonUniIta.otf
p616
sg20
g21
sbag1
(g8
g3
NtRp617
(dp618
g11
g12
sg13
VSTIXIntegralsUp
p619
sg15
I400
sg16
g12
sg17
g12
sg18
V/Library/Fonts/STIXIntUpReg.otf
p620
sg20
g21
sbag1
(g8
g3
NtRp621
(dp622
g11
g12
sg13
VYuppy SC
p623
sg15
I400
sg16
g12
sg17
g12
sg18
V/Library/Fonts/YuppySC-Regular.otf
p624
sg20
g21
sbag1
(g8
g3
NtRp625
(dp626
g11
g12
sg13
VComic Sans MS
p627
sg15
I700
sg16
g12
sg17
g12
sg18
V/Library/Fonts/Comic Sans MS Bold.ttf
p628
sg20
g21
sbag1
(g8
g3
NtRp629
(dp630
g11
g12
sg13
VTrebuchet MS
p631
sg15
I400
sg16
g12
sg17
g12
sg18
V/Library/Fonts/Trebuchet MS.ttf
p632
sg20
g21
sbag1
(g8
g3
NtRp633
(dp634
g11
g12
sg13
VCourier New
p635
sg15
I700
sg16
g12
sg17
g12
sg18
V/Library/Fonts/Courier New Bold.ttf
p636
sg20
g21
sbag1
(g8
g3
NtRp637
(dp638
g11
g12
sg13
VBig Caslon
p639
sg15
I500
sg16
g12
sg17
g12
sg18
V/Library/Fonts/BigCaslon.ttf
p640
sg20
g21
sbag1
(g8
g3
NtRp641
(dp642
g11
g12
sg13
VConstantia
p643
sg15
I400
sg16
g12
sg17
g12
sg18
V/Users/adeel/Library/Fonts/Constantia.ttf
p644
sg20
g21
sbag1
(g8
g3
NtRp645
(dp646
g11
g12
sg13
VSystem Font
p647
sg15
I400
sg16
g12
sg17
g12
sg18
V/System/Library/Fonts/SFNSText-Heavy.otf
p648
sg20
g21
sbag1
(g8
g3
NtRp649
(dp650
g11
g12
sg13
VAyuthaya
p651
sg15
I400
sg16
g12
sg17
g12
sg18
V/Library/Fonts/Ayuthaya.ttf
p652
sg20
g21
sbag1
(g8
g3
NtRp653
(dp654
g11
g12
sg13
VHerculanum
p655
sg15
I400
sg16
g12
sg17
g12
sg18
V/Library/Fonts/Herculanum.ttf
p656
sg20
g21
sbag1
(g8
g3
NtRp657
(dp658
g11
g12
sg13
VWebdings
p659
sg15
I400
sg16
g12
sg17
g12
sg18
V/Library/Fonts/Webdings.ttf
p660
sg20
g21
sbag1
(g8
g3
NtRp661
(dp662
g11
g12
sg13
VSystem Font
p663
sg15
I400
sg16
g12
sg17
g12
sg18
V/System/Library/Fonts/SFNSDisplay-Black.otf
p664
sg20
g21
sbag1
(g8
g3
NtRp665
(dp666
g11
g12
sg13
VApple Braille
p667
sg15
I400
sg16
g12
sg17
g12
sg18
V/System/Library/Fonts/Apple Braille Pinpoint 6 Dot.ttf
p668
sg20
g21
sbag1
(g8
g3
NtRp669
(dp670
g11
g12
sg13
VCambria
p671
sg15
I700
sg16
g12
sg17
g12
sg18
V/Users/adeel/Library/Fonts/Cambria Bold.ttf
p672
sg20
g21
sbag1
(g8
g3
NtRp673
(dp674
g11
g12
sg13
VSymbol
p675
sg15
I400
sg16
g12
sg17
g12
sg18
V/System/Library/Fonts/Symbol.ttf
p676
sg20
g21
sbag1
(g8
g3
NtRp677
(dp678
g11
g12
sg13
VSystem Font
p679
sg15
I400
sg16
g12
sg17
g12
sg18
V/System/Library/Fonts/SFNSText-MediumItalic.otf
p680
sg20
g21
sbag1
(g8
g3
NtRp681
(dp682
g11
g29
sg13
VTrebuchet MS
p683
sg15
I700
sg16
g12
sg17
g12
sg18
V/Library/Fonts/Trebuchet MS Bold Italic.ttf
p684
sg20
g21
sbag1
(g8
g3
NtRp685
(dp686
g11
g29
sg13
VConsolas
p687
sg15
I700
sg16
g12
sg17
g12
sg18
V/Users/adeel/Library/Fonts/Consolas Bold Italic.ttf
p688
sg20
g21
sbag1
(g8
g3
NtRp689
(dp690
g11
g12
sg13
VSTHeiti
p691
sg15
I400
sg16
g12
sg17
g12
sg18
V/Library/Fonts/\u534e\u6587\u7ec6\u9ed1.ttf
p692
sg20
g21
sbag1
(g8
g3
NtRp693
(dp694
g11
g12
sg13
VWingdings 2
p695
sg15
I400
sg16
g12
sg17
g12
sg18
V/Library/Fonts/Wingdings 2.ttf
p696
sg20
g21
sbag1
(g8
g3
NtRp697
(dp698
g11
g12
sg13
VSignPainter
p699
sg15
I400
sg16
g12
sg17
g12
sg18
V/Library/Fonts/SignPainter.otf
p700
sg20
g21
sbag1
(g8
g3
NtRp701
(dp702
g11
g12
sg13
VTahoma
p703
sg15
I400
sg16
g12
sg17
g12
sg18
V/Library/Fonts/Tahoma.ttf
p704
sg20
g21
sbag1
(g8
g3
NtRp705
(dp706
g11
g29
sg13
VBrush Script MT
p707
sg15
I400
sg16
g12
sg17
g12
sg18
V/Library/Fonts/Brush Script.ttf
p708
sg20
g21
sbag1
(g8
g3
NtRp709
(dp710
g11
g12
sg13
V.Keyboard
p711
sg15
I400
sg16
g12
sg17
g12
sg18
V/System/Library/Fonts/Keyboard.ttf
p712
sg20
g21
sbag1
(g8
g3
NtRp713
(dp714
g11
g29
sg13
VCalibri
p715
sg15
I400
sg16
g12
sg17
g12
sg18
V/Users/adeel/Library/Fonts/Calibri Italic.ttf
p716
sg20
g21
sbag1
(g8
g3
NtRp717
(dp718
g11
g12
sg13
VSTIXSizeOneSym
p719
sg15
I400
sg16
g12
sg17
g12
sg18
V/Library/Fonts/STIXSizOneSymReg.otf
p720
sg20
g21
sbag1
(g8
g3
NtRp721
(dp722
g11
g12
sg13
VSTIXIntegralsUpSm
p723
sg15
I400
sg16
g12
sg17
g12
sg18
V/Library/Fonts/STIXIntUpSmReg.otf
p724
sg20
g21
sbag1
(g8
g3
NtRp725
(dp726
g11
g12
sg13
VAndale Mono
p727
sg15
I400
sg16
g12
sg17
g12
sg18
V/Library/Fonts/Andale Mono.ttf
p728
sg20
g21
sbag1
(g8
g3
NtRp729
(dp730
g11
g12
sg13
VKhmer Sangam MN
p731
sg15
I400
sg16
g12
sg17
g12
sg18
V/Library/Fonts/Khmer Sangam MN.ttf
p732
sg20
g21
sbag1
(g8
g3
NtRp733
(dp734
g11
g29
sg13
VConsolas
p735
sg15
I400
sg16
g12
sg17
g12
sg18
V/Users/adeel/Library/Fonts/Consolas Italic.ttf
p736
sg20
g21
sbag1
(g8
g3
NtRp737
(dp738
g11
g12
sg13
VMicrosoft Sans Serif
p739
sg15
I400
sg16
g12
sg17
g12
sg18
V/Library/Fonts/Microsoft Sans Serif.ttf
p740
sg20
g21
sbag1
(g8
g3
NtRp741
(dp742
g11
g12
sg13
VCalibri
p743
sg15
I700
sg16
g12
sg17
g12
sg18
V/Users/adeel/Library/Fonts/Calibri Bold.ttf
p744
sg20
g21
sbag1
(g8
g3
NtRp745
(dp746
g11
g12
sg13
VSTIXIntegralsUpD
p747
sg15
I700
sg16
g12
sg17
g12
sg18
V/Library/Fonts/STIXIntUpDBol.otf
p748
sg20
g21
sbag1
(g8
g3
NtRp749
(dp750
g11
g12
sg13
VSTIXGeneral
p751
sg15
I400
sg16
g12
sg17
g12
sg18
V/Library/Fonts/STIXGeneral.otf
p752
sg20
g21
sbag1
(g8
g3
NtRp753
(dp754
g11
g29
sg13
VCourier New
p755
sg15
I400
sg16
g12
sg17
g12
sg18
V/Library/Fonts/Courier New Italic.ttf
p756
sg20
g21
sbag1
(g8
g3
NtRp757
(dp758
g11
g12
sg13
VArial Black
p759
sg15
I900
sg16
g12
sg17
g12
sg18
V/Library/Fonts/Arial Black.ttf
p760
sg20
g21
sbag1
(g8
g3
NtRp761
(dp762
g11
g29
sg13
VSTIXGeneral
p763
sg15
I400
sg16
g12
sg17
g12
sg18
V/Library/Fonts/STIXGeneralItalic.otf
p764
sg20
g21
sbag1
(g8
g3
NtRp765
(dp766
g11
g12
sg13
VSilom
p767
sg15
I400
sg16
g12
sg17
g12
sg18
V/Library/Fonts/Silom.ttf
p768
sg20
g21
sbag1
(g8
g3
NtRp769
(dp770
g11
g12
sg13
VCorbel
p771
sg15
I400
sg16
g12
sg17
g12
sg18
V/Users/adeel/Library/Fonts/Corbel.ttf
p772
sg20
g21
sbag1
(g8
g3
NtRp773
(dp774
g11
g12
sg13
VWeibei SC
p775
sg15
I700
sg16
g12
sg17
g12
sg18
V/Library/Fonts/WeibeiSC-Bold.otf
p776
sg20
g21
sbag1
(g8
g3
NtRp777
(dp778
g11
g12
sg13
VYuppy TC
p779
sg15
I400
sg16
g12
sg17
g12
sg18
V/Library/Fonts/YuppyTC-Regular.otf
p780
sg20
g21
sbag1
(g8
g3
NtRp781
(dp782
g11
g12
sg13
VSystem Font
p783
sg15
I400
sg16
g12
sg17
g12
sg18
V/System/Library/Fonts/SFNSText-RegularG1.otf
p784
sg20
g21
sbag1
(g8
g3
NtRp785
(dp786
g11
g12
sg13
VSystem Font
p787
sg15
I400
sg16
g12
sg17
g12
sg18
V/System/Library/Fonts/SFNSDisplay-Thin.otf
p788
sg20
g21
sbag1
(g8
g3
NtRp789
(dp790
g11
g12
sg13
VSTIXSizeFourSym
p791
sg15
I400
sg16
g12
sg17
g12
sg18
V/Library/Fonts/STIXSizFourSymReg.otf
p792
sg20
g21
sbag1
(g8
g3
NtRp793
(dp794
g11
g12
sg13
VApple Chancery
p795
sg15
I400
sg16
g12
sg17
g12
sg18
V/Library/Fonts/Apple Chancery.ttf
p796
sg20
g21
sbag1
(g8
g3
NtRp797
(dp798
g11
g12
sg13
VCandara
p799
sg15
I400
sg16
g12
sg17
g12
sg18
V/Users/adeel/Library/Fonts/Candara.ttf
p800
sg20
g21
sbag1
(g8
g3
NtRp801
(dp802
g11
g12
sg13
VWingdings 3
p803
sg15
I400
sg16
g12
sg17
g12
sg18
V/Library/Fonts/Wingdings 3.ttf
p804
sg20
g21
sbag1
(g8
g3
NtRp805
(dp806
g11
g29
sg13
VSTIXGeneral
p807
sg15
I700
sg16
g12
sg17
g12
sg18
V/Library/Fonts/STIXGeneralBolIta.otf
p808
sg20
g21
sbag1
(g8
g3
NtRp809
(dp810
g11
g12
sg13
VCandara
p811
sg15
I700
sg16
g12
sg17
g12
sg18
V/Users/adeel/Library/Fonts/Candara Bold.ttf
p812
sg20
g21
sbag1
(g8
g3
NtRp813
(dp814
g11
g12
sg13
VSTIXIntegralsUpSm
p815
sg15
I700
sg16
g12
sg17
g12
sg18
V/Library/Fonts/STIXIntUpSmBol.otf
p816
sg20
g21
sbag1
(g8
g3
NtRp817
(dp818
g11
g12
sg13
VLao Sangam MN
p819
sg15
I400
sg16
g12
sg17
g12
sg18
V/Library/Fonts/Lao Sangam MN.ttf
p820
sg20
g21
sbag1
(g8
g3
NtRp821
(dp822
g11
g12
sg13
VTrattatello
p823
sg15
I400
sg16
g12
sg17
g12
sg18
V/Library/Fonts/Trattatello.ttf
p824
sg20
g21
sbag1
(g8
g3
NtRp825
(dp826
g11
g12
sg13
VSTIXSizeOneSym
p827
sg15
I700
sg16
g12
sg17
g12
sg18
V/Library/Fonts/STIXSizOneSymBol.otf
p828
sg20
g21
sbag1
(g8
g3
NtRp829
(dp830
g11
g12
sg13
VComic Sans MS
p831
sg15
I400
sg16
g12
sg17
g12
sg18
V/Library/Fonts/Comic Sans MS.ttf
p832
sg20
g21
sbag1
(g8
g3
NtRp833
(dp834
g11
g12
sg13
VSTIXSizeTwoSym
p835
sg15
I400
sg16
g12
sg17
g12
sg18
V/Library/Fonts/STIXSizTwoSymReg.otf
p836
sg20
g21
sbag1
(g8
g3
NtRp837
(dp838
g11
g12
sg13
VBodoni Ornaments
p839
sg15
I400
sg16
g12
sg17
g12
sg18
V/Library/Fonts/Bodoni Ornaments.ttf
p840
sg20
g21
sbag1
(g8
g3
NtRp841
(dp842
g11
g12
sg13
VSTIXSizeFourSym
p843
sg15
I700
sg16
g12
sg17
g12
sg18
V/Library/Fonts/STIXSizFourSymBol.otf
p844
sg20
g21
sbag1
(g8
g3
NtRp845
(dp846
g11
g12
sg13
VSystem Font
p847
sg15
I400
sg16
g12
sg17
g12
sg18
V/System/Library/Fonts/SFNSText-BoldG3.otf
p848
sg20
g21
sbag1
(g8
g3
NtRp849
(dp850
g11
g12
sg13
VArial
p851
sg15
I700
sg16
g12
sg17
g12
sg18
V/Library/Fonts/Arial Bold.ttf
p852
sg20
g21
sbag1
(g8
g3
NtRp853
(dp854
g11
g12
sg13
VGeorgia
p855
sg15
I700
sg16
g12
sg17
g12
sg18
V/Library/Fonts/Georgia Bold.ttf
p856
sg20
g21
sbag1
(g8
g3
NtRp857
(dp858
g11
g12
sg13
VSystem Font
p859
sg15
I400
sg16
g12
sg17
g12
sg18
V/System/Library/Fonts/SFNSDisplay-Semibold.otf
p860
sg20
g21
sbag1
(g8
g3
NtRp861
(dp862
g11
g12
sg13
VSTIXIntegralsD
p863
sg15
I400
sg16
g12
sg17
g12
sg18
V/Library/Fonts/STIXIntDReg.otf
p864
sg20
g21
sbag1
(g8
g3
NtRp865
(dp866
g11
g12
sg13
VGungSeo
p867
sg15
I400
sg16
g12
sg17
g12
sg18
V/Library/Fonts/Gungseouche.ttf
p868
sg20
g21
sbag1
(g8
g3
NtRp869
(dp870
g11
g12
sg13
VSTIXSizeTwoSym
p871
sg15
I700
sg16
g12
sg17
g12
sg18
V/Library/Fonts/STIXSizTwoSymBol.otf
p872
sg20
g21
sbag1
(g8
g3
NtRp873
(dp874
g11
g12
sg13
VWingdings
p875
sg15
I400
sg16
g12
sg17
g12
sg18
V/Library/Fonts/Wingdings.ttf
p876
sg20
g21
sbag1
(g8
g3
NtRp877
(dp878
g11
g12
sg13
VImpact
p879
sg15
I400
sg16
g12
sg17
g12
sg18
V/Library/Fonts/Impact.ttf
p880
sg20
g21
sbag1
(g8
g3
NtRp881
(dp882
g11
g12
sg13
VTahoma
p883
sg15
I700
sg16
g12
sg17
g12
sg18
V/Library/Fonts/Tahoma Bold.ttf
p884
sg20
g21
sbag1
(g8
g3
NtRp885
(dp886
g11
g12
sg13
VSTIXNonUnicode
p887
sg15
I700
sg16
g12
sg17
g12
sg18
V/Library/Fonts/STIXNonUniBol.otf
p888
sg20
g21
sbag1
(g8
g3
NtRp889
(dp890
g11
g29
sg13
VGeorgia
p891
sg15
I700
sg16
g12
sg17
g12
sg18
V/Library/Fonts/Georgia Bold Italic.ttf
p892
sg20
g21
sbag1
(g8
g3
NtRp893
(dp894
g11
g12
sg13
VSystem Font
p895
sg15
I400
sg16
g12
sg17
g12
sg18
V/System/Library/Fonts/SFNSDisplay-Heavy.otf
p896
sg20
g21
sbag1
(g8
g3
NtRp897
(dp898
g11
g12
sg13
VSTIXIntegralsUpD
p899
sg15
I400
sg16
g12
sg17
g12
sg18
V/Library/Fonts/STIXIntUpDReg.otf
p900
sg20
g21
sbag1
(g8
g3
NtRp901
(dp902
g11
g12
sg13
VSathu
p903
sg15
I400
sg16
g12
sg17
g12
sg18
V/Library/Fonts/Sathu.ttf
p904
sg20
g21
sbag1
(g8
g3
NtRp905
(dp906
g11
g12
sg13
VSystem Font
p907
sg15
I400
sg16
g12
sg17
g12
sg18
V/System/Library/Fonts/SFNSDisplay-Regular.otf
p908
sg20
g21
sbasS'defaultFamily'
p909
(dp910
Vafm
p911
VHelvetica
p912
sVttf
p913
VBitstream Vera Sans
p914
ssS'ttffiles'
p915
(lp916
g19
ag26
ag31
ag35
ag39
ag43
ag47
ag51
ag55
ag59
ag63
ag67
ag71
ag75
ag79
ag83
ag87
ag91
ag95
ag99
ag103
ag107
ag111
ag115
ag119
ag123
ag127
ag131
ag135
ag139
ag143
ag147
ag151
ag155
ag159
ag163
ag167
ag171
ag175
ag179
ag183
ag187
ag191
ag195
ag200
ag204
ag208
ag212
ag216
ag220
ag224
aV/Library/Fonts/NISC18030.ttf
p917
ag228
ag232
ag236
ag240
ag244
ag248
ag252
ag256
ag260
ag264
ag268
ag272
ag276
ag280
ag284
ag288
ag292
ag296
ag300
ag304
ag308
ag312
ag316
ag320
ag324
ag328
ag332
ag336
ag340
ag344
ag348
ag352
ag356
ag360
ag364
ag368
ag372
ag376
ag380
ag384
ag388
ag392
ag396
ag400
ag404
ag408
ag412
ag416
ag420
ag424
ag428
ag432
ag436
ag440
ag444
ag448
ag452
ag456
ag460
ag464
ag468
aV/System/Library/Fonts/Apple Color Emoji.ttf
p918
ag472
ag476
ag480
ag484
ag488
ag492
ag496
ag500
ag504
ag508
ag512
ag516
ag520
ag524
ag528
ag532
ag536
ag540
ag544
ag548
ag552
ag556
ag560
ag564
ag568
ag572
ag576
ag580
ag584
ag588
ag592
ag596
ag600
ag604
ag608
ag612
ag616
ag620
ag624
ag628
ag632
ag636
ag640
ag644
ag648
ag652
ag656
ag660
ag664
ag668
ag672
ag676
ag680
ag684
ag688
ag692
ag696
ag700
ag704
ag708
ag712
ag716
ag720
ag724
ag728
ag732
ag736
ag740
ag744
ag748
ag752
ag756
ag760
ag764
ag768
ag772
ag776
ag780
ag784
ag788
ag792
ag796
ag800
ag804
ag808
ag812
ag816
ag820
ag824
ag828
ag832
ag836
ag840
ag844
ag848
ag852
ag856
ag860
ag864
ag868
ag872
ag876
ag880
ag884
ag888
ag892
ag896
ag900
ag904
ag908
asS'_FontManager__default_weight'
p919
Vnormal
p920
sS'_version'
p921
I101
sS'default_size'
p922
NsS'defaultFont'
p923
(dp924
g911
V/Users/adeel/anaconda2/lib/python2.7/site-packages/matplotlib/mpl-data/fonts/afm/pbkdi8a.afm
p925
sg913
g127
ssS'afmfiles'
p926
(lp927
g925
aV/Users/adeel/anaconda2/lib/python2.7/site-packages/matplotlib/mpl-data/fonts/afm/pncri8a.afm
p928
aV/Users/adeel/anaconda2/lib/python2.7/site-packages/matplotlib/mpl-data/fonts/afm/putb8a.afm
p929
aV/Users/adeel/anaconda2/lib/python2.7/site-packages/matplotlib/mpl-data/fonts/afm/phvro8a.afm
p930
aV/Users/adeel/anaconda2/lib/python2.7/site-packages/matplotlib/mpl-data/fonts/pdfcorefonts/Helvetica-BoldOblique.afm
p931
aV/Users/adeel/anaconda2/lib/python2.7/site-packages/matplotlib/mpl-data/fonts/afm/pplri8a.afm
p932
aV/Users/adeel/anaconda2/lib/python2.7/site-packages/matplotlib/mpl-data/fonts/afm/pncr8a.afm
p933
aV/Users/adeel/anaconda2/lib/python2.7/site-packages/matplotlib/mpl-data/fonts/afm/phvb8an.afm
p934
aV/Users/adeel/anaconda2/lib/python2.7/site-packages/matplotlib/mpl-data/fonts/afm/pagd8a.afm
p935
aV/Users/adeel/anaconda2/lib/python2.7/site-packages/matplotlib/mpl-data/fonts/afm/cmr10.afm
p936
aV/Users/adeel/anaconda2/lib/python2.7/site-packages/matplotlib/mpl-data/fonts/afm/pzdr.afm
p937
aV/Users/adeel/anaconda2/lib/python2.7/site-packages/matplotlib/mpl-data/fonts/afm/cmmi10.afm
p938
aV/Users/adeel/anaconda2/lib/python2.7/site-packages/matplotlib/mpl-data/fonts/afm/pagko8a.afm
p939
aV/Users/adeel/anaconda2/lib/python2.7/site-packages/matplotlib/mpl-data/fonts/afm/pbkl8a.afm
p940
aV/Users/adeel/anaconda2/lib/python2.7/site-packages/matplotlib/mpl-data/fonts/afm/pcrro8a.afm
p941
aV/Users/adeel/anaconda2/lib/python2.7/site-packages/matplotlib/mpl-data/fonts/afm/cmtt10.afm
p942
aV/Users/adeel/anaconda2/lib/python2.7/site-packages/matplotlib/mpl-data/fonts/afm/pagk8a.afm
p943
aV/Users/adeel/anaconda2/lib/python2.7/site-packages/matplotlib/mpl-data/fonts/afm/phvr8an.afm
p944
aV/Users/adeel/anaconda2/lib/python2.7/site-packages/matplotlib/mpl-data/fonts/afm/phvbo8an.afm
p945
aV/Users/adeel/anaconda2/lib/python2.7/site-packages/matplotlib/mpl-data/fonts/afm/phvl8a.afm
p946
aV/Users/adeel/anaconda2/lib/python2.7/site-packages/matplotlib/mpl-data/fonts/afm/ptmri8a.afm
p947
aV/Users/adeel/anaconda2/lib/python2.7/site-packages/matplotlib/mpl-data/fonts/afm/phvr8a.afm
p948
aV/Users/adeel/anaconda2/lib/python2.7/site-packages/matplotlib/mpl-data/fonts/afm/pcrbo8a.afm
p949
aV/Users/adeel/anaconda2/lib/python2.7/site-packages/matplotlib/mpl-data/fonts/afm/pplr8a.afm
p950
aV/Users/adeel/anaconda2/lib/python2.7/site-packages/matplotlib/mpl-data/fonts/pdfcorefonts/Courier-Bold.afm
p951
aV/Users/adeel/anaconda2/lib/python2.7/site-packages/matplotlib/mpl-data/fonts/afm/pbkd8a.afm
p952
aV/Users/adeel/anaconda2/lib/python2.7/site-packages/matplotlib/mpl-data/fonts/afm/pncbi8a.afm
p953
aV/Users/adeel/anaconda2/lib/python2.7/site-packages/matplotlib/mpl-data/fonts/pdfcorefonts/Courier-Oblique.afm
p954
aV/Users/adeel/anaconda2/lib/python2.7/site-packages/matplotlib/mpl-data/fonts/afm/phvb8a.afm
p955
aV/Users/adeel/anaconda2/lib/python2.7/site-packages/matplotlib/mpl-data/fonts/afm/ptmr8a.afm
p956
aV/Users/adeel/anaconda2/lib/python2.7/site-packages/matplotlib/mpl-data/fonts/afm/pplb8a.afm
p957
aV/Users/adeel/anaconda2/lib/python2.7/site-packages/matplotlib/mpl-data/fonts/afm/putbi8a.afm
p958
aV/Users/adeel/anaconda2/lib/python2.7/site-packages/matplotlib/mpl-data/fonts/afm/cmex10.afm
p959
aV/Users/adeel/anaconda2/lib/python2.7/site-packages/matplotlib/mpl-data/fonts/afm/phvbo8a.afm
p960
aV/Users/adeel/anaconda2/lib/python2.7/site-packages/matplotlib/mpl-data/fonts/pdfcorefonts/Times-Bold.afm
p961
aV/Users/adeel/anaconda2/lib/python2.7/site-packages/matplotlib/mpl-data/fonts/pdfcorefonts/Times-BoldItalic.afm
p962
aV/Users/adeel/anaconda2/lib/python2.7/site-packages/matplotlib/mpl-data/fonts/pdfcorefonts/ZapfDingbats.afm
p963
aV/Users/adeel/anaconda2/lib/python2.7/site-packages/matplotlib/mpl-data/fonts/afm/pcrb8a.afm
p964
aV/Users/adeel/anaconda2/lib/python2.7/site-packages/matplotlib/mpl-data/fonts/afm/ptmb8a.afm
p965
aV/Users/adeel/anaconda2/lib/python2.7/site-packages/matplotlib/mpl-data/fonts/pdfcorefonts/Helvetica.afm
p966
aV/Users/adeel/anaconda2/lib/python2.7/site-packages/matplotlib/mpl-data/fonts/afm/phvlo8a.afm
p967
aV/Users/adeel/anaconda2/lib/python2.7/site-packages/matplotlib/mpl-data/fonts/afm/ptmbi8a.afm
p968
aV/Users/adeel/anaconda2/lib/python2.7/site-packages/matplotlib/mpl-data/fonts/afm/pcrr8a.afm
p969
aV/Users/adeel/anaconda2/lib/python2.7/site-packages/matplotlib/mpl-data/fonts/afm/pagdo8a.afm
p970
aV/Users/adeel/anaconda2/lib/python2.7/site-packages/matplotlib/mpl-data/fonts/pdfcorefonts/Courier.afm
p971
aV/Users/adeel/anaconda2/lib/python2.7/site-packages/matplotlib/mpl-data/fonts/pdfcorefonts/Courier-BoldOblique.afm
p972
aV/Users/adeel/anaconda2/lib/python2.7/site-packages/matplotlib/mpl-data/fonts/pdfcorefonts/Helvetica-Bold.afm
p973
aV/Users/adeel/anaconda2/lib/python2.7/site-packages/matplotlib/mpl-data/fonts/pdfcorefonts/Helvetica-Oblique.afm
p974
aV/Users/adeel/anaconda2/lib/python2.7/site-packages/matplotlib/mpl-data/fonts/pdfcorefonts/Times-Roman.afm
p975
aV/Users/adeel/anaconda2/lib/python2.7/site-packages/matplotlib/mpl-data/fonts/afm/pbkli8a.afm
p976
aV/Users/adeel/anaconda2/lib/python2.7/site-packages/matplotlib/mpl-data/fonts/afm/pncb8a.afm
p977
aV/Users/adeel/anaconda2/lib/python2.7/site-packages/matplotlib/mpl-data/fonts/pdfcorefonts/Symbol.afm
p978
aV/Users/adeel/anaconda2/lib/python2.7/site-packages/matplotlib/mpl-data/fonts/afm/cmsy10.afm
p979
aV/Users/adeel/anaconda2/lib/python2.7/site-packages/matplotlib/mpl-data/fonts/pdfcorefonts/Times-Italic.afm
p980
aV/Users/adeel/anaconda2/lib/python2.7/site-packages/matplotlib/mpl-data/fonts/afm/putri8a.afm
p981
aV/Users/adeel/anaconda2/lib/python2.7/site-packages/matplotlib/mpl-data/fonts/afm/phvro8an.afm
p982
aV/Users/adeel/anaconda2/lib/python2.7/site-packages/matplotlib/mpl-data/fonts/afm/pzcmi8a.afm
p983
aV/Users/adeel/anaconda2/lib/python2.7/site-packages/matplotlib/mpl-data/fonts/afm/psyr.afm
p984
aV/Users/adeel/anaconda2/lib/python2.7/site-packages/matplotlib/mpl-data/fonts/afm/pplbi8a.afm
p985
aV/Users/adeel/anaconda2/lib/python2.7/site-packages/matplotlib/mpl-data/fonts/afm/putr8a.afm
p986
asS'afmlist'
p987
(lp988
g1
(g8
g3
NtRp989
(dp990
g11
Vitalic
p991
sg13
S'ITC Bookman'
p992
sg15
I600
sg16
Vnormal
p993
sg17
g993
sg18
g925
sg20
Vscalable
p994
sbag1
(g8
g3
NtRp995
(dp996
g11
g991
sg13
S'New Century Schoolbook'
p997
sg15
I500
sg16
g993
sg17
g993
sg18
g928
sg20
g994
sbag1
(g8
g3
NtRp998
(dp999
g11
g993
sg13
S'Utopia'
p1000
sg15
I700
sg16
g993
sg17
g993
sg18
g929
sg20
g994
sbag1
(g8
g3
NtRp1001
(dp1002
g11
g991
sg13
S'Helvetica'
p1003
sg15
I500
sg16
g993
sg17
g993
sg18
g930
sg20
g994
sbag1
(g8
g3
NtRp1004
(dp1005
g11
g991
sg13
S'Helvetica'
p1006
sg15
I700
sg16
g993
sg17
g993
sg18
g931
sg20
g994
sbag1
(g8
g3
NtRp1007
(dp1008
g11
g991
sg13
S'Palatino'
p1009
sg15
I500
sg16
g993
sg17
g993
sg18
g932
sg20
g994
sbag1
(g8
g3
NtRp1010
(dp1011
g11
g993
sg13
S'New Century Schoolbook'
p1012
sg15
I500
sg16
g993
sg17
g993
sg18
g933
sg20
g994
sbag1
(g8
g3
NtRp1013
(dp1014
g11
g993
sg13
S'Helvetica'
p1015
sg15
I700
sg16
Vcondensed
p1016
sg17
g993
sg18
g934
sg20
g994
sbag1
(g8
g3
NtRp1017
(dp1018
g11
g993
sg13
S'ITC Avant Garde Gothic'
p1019
sg15
I600
sg16
g993
sg17
g993
sg18
g935
sg20
g994
sbag1
(g8
g3
NtRp1020
(dp1021
g11
g993
sg13
S'Computer Modern'
p1022
sg15
I500
sg16
g993
sg17
g993
sg18
g936
sg20
g994
sbag1
(g8
g3
NtRp1023
(dp1024
g11
g993
sg13
S'ITC Zapf Dingbats'
p1025
sg15
I500
sg16
g993
sg17
g993
sg18
g937
sg20
g994
sbag1
(g8
g3
NtRp1026
(dp1027
g11
g991
sg13
S'Computer Modern'
p1028
sg15
I500
sg16
g993
sg17
g993
sg18
g938
sg20
g994
sbag1
(g8
g3
NtRp1029
(dp1030
g11
g991
sg13
S'ITC Avant Garde Gothic'
p1031
sg15
I400
sg16
g993
sg17
g993
sg18
g939
sg20
g994
sbag1
(g8
g3
NtRp1032
(dp1033
g11
g993
sg13
S'ITC Bookman'
p1034
sg15
I200
sg16
g993
sg17
g993
sg18
g940
sg20
g994
sbag1
(g8
g3
NtRp1035
(dp1036
g11
g991
sg13
S'Courier'
p1037
sg15
I500
sg16
g993
sg17
g993
sg18
g941
sg20
g994
sbag1
(g8
g3
NtRp1038
(dp1039
g11
g993
sg13
S'Computer Modern'
p1040
sg15
I500
sg16
g993
sg17
g993
sg18
g942
sg20
g994
sbag1
(g8
g3
NtRp1041
(dp1042
g11
g993
sg13
S'ITC Avant Garde Gothic'
p1043
sg15
I400
sg16
g993
sg17
g993
sg18
g943
sg20
g994
sbag1
(g8
g3
NtRp1044
(dp1045
g11
g993
sg13
S'Helvetica'
p1046
sg15
I500
sg16
g1016
sg17
g993
sg18
g944
sg20
g994
sbag1
(g8
g3
NtRp1047
(dp1048
g11
g991
sg13
S'Helvetica'
p1049
sg15
I700
sg16
g1016
sg17
g993
sg18
g945
sg20
g994
sbag1
(g8
g3
NtRp1050
(dp1051
g11
g993
sg13
S'Helvetica'
p1052
sg15
I200
sg16
g993
sg17
g993
sg18
g946
sg20
g994
sbag1
(g8
g3
NtRp1053
(dp1054
g11
g991
sg13
S'Times'
p1055
sg15
I500
sg16
g993
sg17
g993
sg18
g947
sg20
g994
sbag1
(g8
g3
NtRp1056
(dp1057
g11
g993
sg13
S'Helvetica'
p1058
sg15
I500
sg16
g993
sg17
g993
sg18
g948
sg20
g994
sbag1
(g8
g3
NtRp1059
(dp1060
g11
g991
sg13
S'Courier'
p1061
sg15
I700
sg16
g993
sg17
g993
sg18
g949
sg20
g994
sbag1
(g8
g3
NtRp1062
(dp1063
g11
g993
sg13
S'Palatino'
p1064
sg15
I500
sg16
g993
sg17
g993
sg18
g950
sg20
g994
sbag1
(g8
g3
NtRp1065
(dp1066
g11
g993
sg13
S'Courier'
p1067
sg15
I700
sg16
g993
sg17
g993
sg18
g951
sg20
g994
sbag1
(g8
g3
NtRp1068
(dp1069
g11
g993
sg13
S'ITC Bookman'
p1070
sg15
I600
sg16
g993
sg17
g993
sg18
g952
sg20
g994
sbag1
(g8
g3
NtRp1071
(dp1072
g11
g991
sg13
S'New Century Schoolbook'
p1073
sg15
I700
sg16
g993
sg17
g993
sg18
g953
sg20
g994
sbag1
(g8
g3
NtRp1074
(dp1075
g11
g991
sg13
S'Courier'
p1076
sg15
I500
sg16
g993
sg17
g993
sg18
g954
sg20
g994
sbag1
(g8
g3
NtRp1077
(dp1078
g11
g993
sg13
S'Helvetica'
p1079
sg15
I700
sg16
g993
sg17
g993
sg18
g955
sg20
g994
sbag1
(g8
g3
NtRp1080
(dp1081
g11
g993
sg13
S'Times'
p1082
sg15
I500
sg16
g993
sg17
g993
sg18
g956
sg20
g994
sbag1
(g8
g3
NtRp1083
(dp1084
g11
g993
sg13
S'Palatino'
p1085
sg15
I700
sg16
g993
sg17
g993
sg18
g957
sg20
g994
sbag1
(g8
g3
NtRp1086
(dp1087
g11
g991
sg13
S'Utopia'
p1088
sg15
I700
sg16
g993
sg17
g993
sg18
g958
sg20
g994
sbag1
(g8
g3
NtRp1089
(dp1090
g11
g993
sg13
S'Computer Modern'
p1091
sg15
I500
sg16
g993
sg17
g993
sg18
g959
sg20
g994
sbag1
(g8
g3
NtRp1092
(dp1093
g11
g991
sg13
S'Helvetica'
p1094
sg15
I700
sg16
g993
sg17
g993
sg18
g960
sg20
g994
sbag1
(g8
g3
NtRp1095
(dp1096
g11
g993
sg13
S'Times'
p1097
sg15
I700
sg16
g993
sg17
g993
sg18
g961
sg20
g994
sbag1
(g8
g3
NtRp1098
(dp1099
g11
g991
sg13
S'Times'
p1100
sg15
I700
sg16
g993
sg17
g993
sg18
g962
sg20
g994
sbag1
(g8
g3
NtRp1101
(dp1102
g11
g993
sg13
S'ZapfDingbats'
p1103
sg15
I500
sg16
g993
sg17
g993
sg18
g963
sg20
g994
sbag1
(g8
g3
NtRp1104
(dp1105
g11
g993
sg13
S'Courier'
p1106
sg15
I700
sg16
g993
sg17
g993
sg18
g964
sg20
g994
sbag1
(g8
g3
NtRp1107
(dp1108
g11
g993
sg13
S'Times'
p1109
sg15
I700
sg16
g993
sg17
g993
sg18
g965
sg20
g994
sbag1
(g8
g3
NtRp1110
(dp1111
g11
g993
sg13
S'Helvetica'
p1112
sg15
I500
sg16
g993
sg17
g993
sg18
g966
sg20
g994
sbag1
(g8
g3
NtRp1113
(dp1114
g11
g991
sg13
S'Helvetica'
p1115
sg15
I200
sg16
g993
sg17
g993
sg18
g967
sg20
g994
sbag1
(g8
g3
NtRp1116
(dp1117
g11
g991
sg13
S'Times'
p1118
sg15
I700
sg16
g993
sg17
g993
sg18
g968
sg20
g994
sbag1
(g8
g3
NtRp1119
(dp1120
g11
g993
sg13
S'Courier'
p1121
sg15
I500
sg16
g993
sg17
g993
sg18
g969
sg20
g994
sbag1
(g8
g3
NtRp1122
(dp1123
g11
g991
sg13
S'ITC Avant Garde Gothic'
p1124
sg15
I600
sg16
g993
sg17
g993
sg18
g970
sg20
g994
sbag1
(g8
g3
NtRp1125
(dp1126
g11
g993
sg13
S'Courier'
p1127
sg15
I500
sg16
g993
sg17
g993
sg18
g971
sg20
g994
sbag1
(g8
g3
NtRp1128
(dp1129
g11
g991
sg13
S'Courier'
p1130
sg15
I700
sg16
g993
sg17
g993
sg18
g972
sg20
g994
sbag1
(g8
g3
NtRp1131
(dp1132
g11
g993
sg13
S'Helvetica'
p1133
sg15
I700
sg16
g993
sg17
g993
sg18
g973
sg20
g994
sbag1
(g8
g3
NtRp1134
(dp1135
g11
g991
sg13
S'Helvetica'
p1136
sg15
I500
sg16
g993
sg17
g993
sg18
g974
sg20
g994
sbag1
(g8
g3
NtRp1137
(dp1138
g11
g993
sg13
S'Times'
p1139
sg15
I500
sg16
g993
sg17
g993
sg18
g975
sg20
g994
sbag1
(g8
g3
NtRp1140
(dp1141
g11
g991
sg13
S'ITC Bookman'
p1142
sg15
I200
sg16
g993
sg17
g993
sg18
g976
sg20
g994
sbag1
(g8
g3
NtRp1143
(dp1144
g11
g993
sg13
S'New Century Schoolbook'
p1145
sg15
I700
sg16
g993
sg17
g993
sg18
g977
sg20
g994
sbag1
(g8
g3
NtRp1146
(dp1147
g11
g993
sg13
S'Symbol'
p1148
sg15
I500
sg16
g993
sg17
g993
sg18
g978
sg20
g994
sbag1
(g8
g3
NtRp1149
(dp1150
g11
g991
sg13
S'Computer Modern'
p1151
sg15
I500
sg16
g993
sg17
g993
sg18
g979
sg20
g994
sbag1
(g8
g3
NtRp1152
(dp1153
g11
g991
sg13
S'Times'
p1154
sg15
I500
sg16
g993
sg17
g993
sg18
g980
sg20
g994
sbag1
(g8
g3
NtRp1155
(dp1156
g11
g991
sg13
S'Utopia'
p1157
sg15
I400
sg16
g993
sg17
g993
sg18
g981
sg20
g994
sbag1
(g8
g3
NtRp1158
(dp1159
g11
g991
sg13
S'Helvetica'
p1160
sg15
I500
sg16
g1016
sg17
g993
sg18
g982
sg20
g994
sbag1
(g8
g3
NtRp1161
(dp1162
g11
g991
sg13
S'ITC Zapf Chancery'
p1163
sg15
I500
sg16
g993
sg17
g993
sg18
g983
sg20
g994
sbag1
(g8
g3
NtRp1164
(dp1165
g11
g993
sg13
S'Symbol'
p1166
sg15
I500
sg16
g993
sg17
g993
sg18
g984
sg20
g994
sbag1
(g8
g3
NtRp1167
(dp1168
g11
g991
sg13
S'Palatino'
p1169
sg15
I700
sg16
g993
sg17
g993
sg18
g985
sg20
g994
sbag1
(g8
g3
NtRp1170
(dp1171
g11
g993
sg13
S'Utopia'
p1172
sg15
I400
sg16
g993
sg17
g993
sg18
g986
sg20
g994
sbasb.